target datalayout = "e-m:e-p270:32:32-p271:32:32-p272:64:64-i64:64-i128:128-f80:128-n8:16:32:64-S128"
target triple = "x86_64-pc-linux-gnu"

@_ZN8tinyxml27XMLUtil13writeBoolTrueE = global ptr @.str, align 8
@_ZN8tinyxml27XMLUtil14writeBoolFalseE = global ptr @.str.1, align 8
@_ZZN8tinyxml27XMLUtil20SetBoolSerializationEPKcS2_E7defTrue = internal global ptr @.str, align 8
@_ZZN8tinyxml27XMLUtil20SetBoolSerializationEPKcS2_E8defFalse = internal global ptr @.str.1, align 8

; Function Attrs: mustprogress nounwind uwtable
define void @_ZN8tinyxml27XMLUtil20SetBoolSerializationEPKcS2_(ptr noundef %0, ptr noundef %1) #0 align 2 {
  %3 = alloca ptr, align 8
  %4 = alloca ptr, align 8
  store ptr %0, ptr %3, align 8, !tbaa !14
  store ptr %1, ptr %4, align 8, !tbaa !14
  %5 = load ptr, ptr %3, align 8, !tbaa !14
  %6 = icmp ne ptr %5, null
  br i1 %6, label %7, label %9

7:                                                ; preds = %2
  %8 = load ptr, ptr %3, align 8, !tbaa !14
  br label %11

9:                                                ; preds = %2
  %10 = load ptr, ptr @_ZZN8tinyxml27XMLUtil20SetBoolSerializationEPKcS2_E7defTrue, align 8, !tbaa !14
  br label %11

11:                                               ; preds = %9, %7
  %12 = phi ptr [ %8, %7 ], [ %10, %9 ]
  store ptr %12, ptr @_ZN8tinyxml27XMLUtil13writeBoolTrueE, align 8, !tbaa !14
  %13 = load ptr, ptr %4, align 8, !tbaa !14
  %14 = icmp ne ptr %13, null
  br i1 %14, label %15, label %17

15:                                               ; preds = %11
  %16 = load ptr, ptr %4, align 8, !tbaa !14
  br label %19

17:                                               ; preds = %11
  %18 = load ptr, ptr @_ZZN8tinyxml27XMLUtil20SetBoolSerializationEPKcS2_E8defFalse, align 8, !tbaa !14
  br label %19

19:                                               ; preds = %17, %15
  %20 = phi ptr [ %16, %15 ], [ %18, %17 ]
  store ptr %20, ptr @_ZN8tinyxml27XMLUtil14writeBoolFalseE, align 8, !tbaa !14
  ret void
}