; Function Attrs: mustprogress nofree norecurse nosync nounwind willreturn memory(write, argmem: none, inaccessiblemem: none) uwtable
define void @_ZN8tinyxml27XMLUtil20SetBoolSerializationEPKcS2_(ptr noundef %0, ptr noundef %1) local_unnamed_addr #12 align 2 {
  %.not = icmp eq ptr %0, null
  %3 = select i1 %.not, ptr @.str, ptr %0
  store ptr %3, ptr @_ZN8tinyxml27XMLUtil13writeBoolTrueE, align 8, !tbaa !29
  %.not4 = icmp eq ptr %1, null
  %4 = select i1 %.not4, ptr @.str.1, ptr %1
  store ptr %4, ptr @_ZN8tinyxml27XMLUtil14writeBoolFalseE, align 8, !tbaa !29
  ret void
}